target datalayout = "e-m:e-p270:32:32-p271:32:32-p272:64:64-i64:64-f80:128-n8:16:32:64-S128"
target triple = "x86_64-pc-linux-gnu"

@.str = private unnamed_addr constant [3 x i8] c"%d\00", align 1
@.str.1 = private unnamed_addr constant [4 x i8] c",%d\00", align 1

; Function Attrs: noinline nounwind uwtable
define dso_local i32 @main() #0 {
  %1 = alloca i32, align 4
  %2 = alloca i32, align 4
  %3 = alloca i32, align 4
  %4 = alloca i32, align 4
  %5 = alloca i32, align 4
  %6 = alloca i32, align 4
  %7 = alloca i32, align 4
  %8 = alloca double, align 8
  %9 = alloca [300 x double], align 16
  %10 = alloca double, align 8
  %11 = alloca [300 x i32], align 16
  store i32 0, i32* %1, align 4
  store i32 0, i32* %6, align 4
  store i32 0, i32* %7, align 4
  store double 0.000000e+00, double* %8, align 8
  %12 = bitcast [300 x double]* %9 to i8*
  call void @llvm.memset.p0i8.i64(i8* align 16 %12, i8 0, i64 2400, i1 false)
  store double 0.000000e+00, double* %10, align 8
  %13 = bitcast [300 x i32]* %11 to i8*
  call void @llvm.memset.p0i8.i64(i8* align 16 %13, i8 0, i64 1200, i1 false)
  %14 = call i32 (i8*, ...) @__isoc99_scanf(i8* getelementptr inbounds ([3 x i8], [3 x i8]* @.str, i64 0, i64 0), i32* %5)
  store i32 0, i32* %2, align 4
  br label %15

15:                                               ; preds = %30, %0
  %16 = load i32, i32* %2, align 4
  %17 = load i32, i32* %5, align 4
  %18 = icmp slt i32 %16, %17
  br i1 %18, label %19, label %33

19:                                               ; preds = %15
  %20 = load i32, i32* %2, align 4
  %21 = sext i32 %20 to i64
  %22 = getelementptr inbounds [300 x i32], [300 x i32]* %11, i64 0, i64 %21
  %23 = call i32 (i8*, ...) @__isoc99_scanf(i8* getelementptr inbounds ([3 x i8], [3 x i8]* @.str, i64 0, i64 0), i32* %22)
  %24 = load i32, i32* %2, align 4
  %25 = sext i32 %24 to i64
  %26 = getelementptr inbounds [300 x i32], [300 x i32]* %11, i64 0, i64 %25
  %27 = load i32, i32* %26, align 4
  %28 = load i32, i32* %6, align 4
  %29 = add nsw i32 %28, %27
  store i32 %29, i32* %6, align 4
  br label %30

30:                                               ; preds = %19
  %31 = load i32, i32* %2, align 4
  %32 = add nsw i32 %31, 1
  store i32 %32, i32* %2, align 4
  br label %15

33:                                               ; preds = %15
  store i32 1, i32* %2, align 4
  br label %34

34:                                               ; preds = %79, %33
  %35 = load i32, i32* %2, align 4
  %36 = load i32, i32* %5, align 4
  %37 = icmp slt i32 %35, %36
  br i1 %37, label %38, label %82

38:                                               ; preds = %34
  store i32 0, i32* %3, align 4
  br label %39

39:                                               ; preds = %75, %38
  %40 = load i32, i32* %3, align 4
  %41 = load i32, i32* %5, align 4
  %42 = load i32, i32* %2, align 4
  %43 = sub nsw i32 %41, %42
  %44 = icmp slt i32 %40, %43
  br i1 %44, label %45, label %78

45:                                               ; preds = %39
  %46 = load i32, i32* %3, align 4
  %47 = sext i32 %46 to i64
  %48 = getelementptr inbounds [300 x i32], [300 x i32]* %11, i64 0, i64 %47
  %49 = load i32, i32* %48, align 4
  %50 = load i32, i32* %3, align 4
  %51 = add nsw i32 %50, 1
  %52 = sext i32 %51 to i64
  %53 = getelementptr inbounds [300 x i32], [300 x i32]* %11, i64 0, i64 %52
  %54 = load i32, i32* %53, align 4
  %55 = icmp sgt i32 %49, %54
  br i1 %55, label %56, label %74

56:                                               ; preds = %45
  %57 = load i32, i32* %3, align 4
  %58 = add nsw i32 %57, 1
  %59 = sext i32 %58 to i64
  %60 = getelementptr inbounds [300 x i32], [300 x i32]* %11, i64 0, i64 %59
  %61 = load i32, i32* %60, align 4
  store i32 %61, i32* %4, align 4
  %62 = load i32, i32* %3, align 4
  %63 = sext i32 %62 to i64
  %64 = getelementptr inbounds [300 x i32], [300 x i32]* %11, i64 0, i64 %63
  %65 = load i32, i32* %64, align 4
  %66 = load i32, i32* %3, align 4
  %67 = add nsw i32 %66, 1
  %68 = sext i32 %67 to i64
  %69 = getelementptr inbounds [300 x i32], [300 x i32]* %11, i64 0, i64 %68
  store i32 %65, i32* %69, align 4
  %70 = load i32, i32* %4, align 4
  %71 = load i32, i32* %3, align 4
  %72 = sext i32 %71 to i64
  %73 = getelementptr inbounds [300 x i32], [300 x i32]* %11, i64 0, i64 %72
  store i32 %70, i32* %73, align 4
  br label %74

74:                                               ; preds = %56, %45
  br label %75

75:                                               ; preds = %74
  %76 = load i32, i32* %3, align 4
  %77 = add nsw i32 %76, 1
  store i32 %77, i32* %3, align 4
  br label %39

78:                                               ; preds = %39
  br label %79

79:                                               ; preds = %78
  %80 = load i32, i32* %2, align 4
  %81 = add nsw i32 %80, 1
  store i32 %81, i32* %2, align 4
  br label %34

82:                                               ; preds = %34
  %83 = load i32, i32* %6, align 4
  %84 = sitofp i32 %83 to double
  %85 = fmul double %84, 1.000000e+00
  %86 = load i32, i32* %5, align 4
  %87 = sitofp i32 %86 to double
  %88 = fmul double %87, 1.000000e+00
  %89 = fdiv double %85, %88
  store double %89, double* %8, align 8
  store i32 0, i32* %2, align 4
  br label %90

90:                                               ; preds = %106, %82
  %91 = load i32, i32* %2, align 4
  %92 = load i32, i32* %5, align 4
  %93 = icmp slt i32 %91, %92
  br i1 %93, label %94, label %109

94:                                               ; preds = %90
  %95 = load i32, i32* %2, align 4
  %96 = sext i32 %95 to i64
  %97 = getelementptr inbounds [300 x i32], [300 x i32]* %11, i64 0, i64 %96
  %98 = load i32, i32* %97, align 4
  %99 = sitofp i32 %98 to double
  %100 = load double, double* %8, align 8
  %101 = fsub double %99, %100
  %102 = call double @llvm.fabs.f64(double %101)
  %103 = load i32, i32* %2, align 4
  %104 = sext i32 %103 to i64
  %105 = getelementptr inbounds [300 x double], [300 x double]* %9, i64 0, i64 %104
  store double %102, double* %105, align 8
  br label %106

106:                                              ; preds = %94
  %107 = load i32, i32* %2, align 4
  %108 = add nsw i32 %107, 1
  store i32 %108, i32* %2, align 4
  br label %90

109:                                              ; preds = %90
  store i32 0, i32* %2, align 4
  br label %110

110:                                              ; preds = %127, %109
  %111 = load i32, i32* %2, align 4
  %112 = load i32, i32* %5, align 4
  %113 = icmp slt i32 %111, %112
  br i1 %113, label %114, label %130

114:                                              ; preds = %110
  %115 = load double, double* %10, align 8
  %116 = load i32, i32* %2, align 4
  %117 = sext i32 %116 to i64
  %118 = getelementptr inbounds [300 x double], [300 x double]* %9, i64 0, i64 %117
  %119 = load double, double* %118, align 8
  %120 = fcmp olt double %115, %119
  br i1 %120, label %121, label %126

121:                                              ; preds = %114
  %122 = load i32, i32* %2, align 4
  %123 = sext i32 %122 to i64
  %124 = getelementptr inbounds [300 x double], [300 x double]* %9, i64 0, i64 %123
  %125 = load double, double* %124, align 8
  store double %125, double* %10, align 8
  br label %126

126:                                              ; preds = %121, %114
  br label %127

127:                                              ; preds = %126
  %128 = load i32, i32* %2, align 4
  %129 = add nsw i32 %128, 1
  store i32 %129, i32* %2, align 4
  br label %110

130:                                              ; preds = %110
  store i32 0, i32* %2, align 4
  br label %131

131:                                              ; preds = %150, %130
  %132 = load i32, i32* %2, align 4
  %133 = load i32, i32* %5, align 4
  %134 = icmp slt i32 %132, %133
  br i1 %134, label %135, label %153

135:                                              ; preds = %131
  %136 = load i32, i32* %2, align 4
  %137 = sext i32 %136 to i64
  %138 = getelementptr inbounds [300 x double], [300 x double]* %9, i64 0, i64 %137
  %139 = load double, double* %138, align 8
  %140 = load double, double* %10, align 8
  %141 = fcmp oeq double %139, %140
  br i1 %141, label %142, label %149

142:                                              ; preds = %135
  %143 = load i32, i32* %2, align 4
  %144 = sext i32 %143 to i64
  %145 = getelementptr inbounds [300 x i32], [300 x i32]* %11, i64 0, i64 %144
  %146 = load i32, i32* %145, align 4
  %147 = call i32 (i8*, ...) @printf(i8* getelementptr inbounds ([3 x i8], [3 x i8]* @.str, i64 0, i64 0), i32 %146)
  %148 = load i32, i32* %2, align 4
  store i32 %148, i32* %7, align 4
  br label %153

149:                                              ; preds = %135
  br label %150

150:                                              ; preds = %149
  %151 = load i32, i32* %2, align 4
  %152 = add nsw i32 %151, 1
  store i32 %152, i32* %2, align 4
  br label %131

153:                                              ; preds = %142, %131
  %154 = load i32, i32* %7, align 4
  %155 = add nsw i32 %154, 1
  store i32 %155, i32* %2, align 4
  br label %156

156:                                              ; preds = %174, %153
  %157 = load i32, i32* %2, align 4
  %158 = load i32, i32* %5, align 4
  %159 = icmp slt i32 %157, %158
  br i1 %159, label %160, label %177

160:                                              ; preds = %156
  %161 = load i32, i32* %2, align 4
  %162 = sext i32 %161 to i64
  %163 = getelementptr inbounds [300 x double], [300 x double]* %9, i64 0, i64 %162
  %164 = load double, double* %163, align 8
  %165 = load double, double* %10, align 8
  %166 = fcmp oeq double %164, %165
  br i1 %166, label %167, label %173

167:                                              ; preds = %160
  %168 = load i32, i32* %2, align 4
  %169 = sext i32 %168 to i64
  %170 = getelementptr inbounds [300 x i32], [300 x i32]* %11, i64 0, i64 %169
  %171 = load i32, i32* %170, align 4
  %172 = call i32 (i8*, ...) @printf(i8* getelementptr inbounds ([4 x i8], [4 x i8]* @.str.1, i64 0, i64 0), i32 %171)
  br label %173

173:                                              ; preds = %167, %160
  br label %174

174:                                              ; preds = %173
  %175 = load i32, i32* %2, align 4
  %176 = add nsw i32 %175, 1
  store i32 %176, i32* %2, align 4
  br label %156

177:                                              ; preds = %156
  ret i32 0
}